target datalayout = "e-m:e-p270:32:32-p271:32:32-p272:64:64-i64:64-i128:128-f80:128-n8:16:32:64-S128"
target triple = "x86_64-pc-linux-gnu"

%"class.clang::ParentMapContext" = type { ptr, i32, %"class.std::unique_ptr" }
%"class.std::unique_ptr" = type { %"struct.std::__uniq_ptr_data" }
%"struct.std::__uniq_ptr_data" = type { %"class.std::__uniq_ptr_impl" }
%"class.std::__uniq_ptr_impl" = type { %"class.std::tuple" }
%"class.std::tuple" = type { %"struct.std::_Tuple_impl" }
%"struct.std::_Tuple_impl" = type { %"struct.std::_Head_base.1" }
%"struct.std::_Head_base.1" = type { ptr }

; Function Attrs: mustprogress nounwind uwtable
define dso_local noundef ptr @_ZNK5clang16ParentMapContext15traverseIgnoredEPNS_4ExprE(ptr noundef nonnull align 8 dereferenceable(24) %0, ptr noundef %1) #0 align 2 {
  %3 = alloca ptr, align 8
  %4 = alloca ptr, align 8
  %5 = alloca ptr, align 8
  store ptr %0, ptr %4, align 8
  store ptr %1, ptr %5, align 8
  %6 = load ptr, ptr %4, align 8
  %7 = load ptr, ptr %5, align 8
  %8 = icmp ne ptr %7, null
  br i1 %8, label %10, label %9

9:                                                ; preds = %2
  store ptr null, ptr %3, align 8
  br label %19

10:                                               ; preds = %2
  %11 = getelementptr inbounds nuw %"class.clang::ParentMapContext", ptr %6, i32 0, i32 1
  %12 = load i32, ptr %11, align 8
  switch i32 %12, label %18 [
    i32 0, label %13
    i32 1, label %15
  ]

13:                                               ; preds = %10
  %14 = load ptr, ptr %5, align 8
  store ptr %14, ptr %3, align 8
  br label %19

15:                                               ; preds = %10
  %16 = load ptr, ptr %5, align 8
  %17 = call noundef ptr @_ZN5clang4Expr27IgnoreUnlessSpelledInSourceEv(ptr noundef nonnull align 8 dereferenceable(16) %16)
  store ptr %17, ptr %3, align 8
  br label %19

18:                                               ; preds = %10
  unreachable

19:                                               ; preds = %15, %13, %9
  %20 = load ptr, ptr %3, align 8
  ret ptr %20
}