; Function Attrs: mustprogress nounwind uwtable
define dso_local noundef ptr @_ZNK5clang16ParentMapContext15traverseIgnoredEPNS_4ExprE(ptr nocapture noundef nonnull readonly align 8 dereferenceable(24) %0, ptr noundef %1) local_unnamed_addr #1 align 2 {
  %.not = icmp eq ptr %1, null
  br i1 %.not, label %8, label %3

3:                                                ; preds = %2
  %4 = getelementptr inbounds nuw i8, ptr %0, i64 8
  %5 = load i32, ptr %4, align 8
  %switch = icmp eq i32 %5, 0
  br i1 %switch, label %8, label %6

6:                                                ; preds = %3
  %7 = tail call noundef ptr @_ZN5clang4Expr27IgnoreUnlessSpelledInSourceEv(ptr noundef nonnull align 8 dereferenceable(16) %1) #16
  br label %8

8:                                                ; preds = %3, %2, %6
  %.0 = phi ptr [ %7, %6 ], [ null, %2 ], [ %1, %3 ]
  ret ptr %.0
}